; Function Attrs: mustprogress nounwind uwtable
define internal fastcc void @_ZNSt6vectorIN12_GLOBAL__N_112AutoRefCountINS0_10RefCountedEEESaIS3_EED2Ev(ptr noundef nonnull readonly align 8 captures(none) dereferenceable(24) %this) unnamed_addr #5 align 2 personality ptr @__gxx_personality_v0 {
entry:
  %0 = load ptr, ptr %this, align 8
  %_M_finish = getelementptr inbounds nuw i8, ptr %this, i64 8
  %1 = load ptr, ptr %_M_finish, align 8
  %cmp.not3.i.i.i = icmp eq ptr %0, %1
  br i1 %cmp.not3.i.i.i, label %invoke.cont, label %for.body.i.i.i

for.body.i.i.i:                                   ; preds = %entry, %_ZSt8_DestroyIN12_GLOBAL__N_112AutoRefCountINS0_10RefCountedEEEEvPT_.exit.i.i.i
  %__first.addr.04.i.i.i = phi ptr [ %incdec.ptr.i.i.i, %_ZSt8_DestroyIN12_GLOBAL__N_112AutoRefCountINS0_10RefCountedEEEEvPT_.exit.i.i.i ], [ %0, %entry ]
  %__first.addr.0.val.i.i.i = load ptr, ptr %__first.addr.04.i.i.i, align 8
  %tobool.not.i.i.i.i.i = icmp eq ptr %__first.addr.0.val.i.i.i, null
  br i1 %tobool.not.i.i.i.i.i, label %_ZSt8_DestroyIN12_GLOBAL__N_112AutoRefCountINS0_10RefCountedEEEEvPT_.exit.i.i.i, label %if.then.i.i.i.i.i

if.then.i.i.i.i.i:                                ; preds = %for.body.i.i.i
  %2 = load i32, ptr @_ZN12_GLOBAL__N_110RefCounted14msReleaseCountE, align 4
  %inc.i.i.i.i.i.i = add nsw i32 %2, 1
  store i32 %inc.i.i.i.i.i.i, ptr @_ZN12_GLOBAL__N_110RefCounted14msReleaseCountE, align 4
  %3 = load i32, ptr %__first.addr.0.val.i.i.i, align 4
  %cmp.i.i.i.i.i.i = icmp sgt i32 %3, 1
  br i1 %cmp.i.i.i.i.i.i, label %if.then.i.i.i.i.i.i, label %delete.notnull.i.i.i.i.i.i

if.then.i.i.i.i.i.i:                              ; preds = %if.then.i.i.i.i.i
  %dec.i.i.i.i.i.i = add nsw i32 %3, -1
  store i32 %dec.i.i.i.i.i.i, ptr %__first.addr.0.val.i.i.i, align 4
  br label %_ZSt8_DestroyIN12_GLOBAL__N_112AutoRefCountINS0_10RefCountedEEEEvPT_.exit.i.i.i

delete.notnull.i.i.i.i.i.i:                       ; preds = %if.then.i.i.i.i.i
  tail call void @_ZdlPv(ptr noundef nonnull align 4 dereferenceable(4) %__first.addr.0.val.i.i.i) #19
  br label %_ZSt8_DestroyIN12_GLOBAL__N_112AutoRefCountINS0_10RefCountedEEEEvPT_.exit.i.i.i

_ZSt8_DestroyIN12_GLOBAL__N_112AutoRefCountINS0_10RefCountedEEEEvPT_.exit.i.i.i: ; preds = %delete.notnull.i.i.i.i.i.i, %if.then.i.i.i.i.i.i, %for.body.i.i.i
  %incdec.ptr.i.i.i = getelementptr inbounds nuw i8, ptr %__first.addr.04.i.i.i, i64 8
  %cmp.not.i.i.i = icmp eq ptr %incdec.ptr.i.i.i, %1
  br i1 %cmp.not.i.i.i, label %invoke.contthread-pre-split, label %for.body.i.i.i, !llvm.loop !56

invoke.contthread-pre-split:                      ; preds = %_ZSt8_DestroyIN12_GLOBAL__N_112AutoRefCountINS0_10RefCountedEEEEvPT_.exit.i.i.i
  %this.val.pr = load ptr, ptr %this, align 8
  br label %invoke.cont

invoke.cont:                                      ; preds = %invoke.contthread-pre-split, %entry
  %this.val = phi ptr [ %this.val.pr, %invoke.contthread-pre-split ], [ %0, %entry ]
  %tobool.not.i.i = icmp eq ptr %this.val, null
  br i1 %tobool.not.i.i, label %_ZNSt12_Vector_baseIN12_GLOBAL__N_112AutoRefCountINS0_10RefCountedEEESaIS3_EED2Ev.exit, label %if.then.i.i

if.then.i.i:                                      ; preds = %invoke.cont
  tail call void @_ZdlPv(ptr noundef nonnull %this.val) #19
  br label %_ZNSt12_Vector_baseIN12_GLOBAL__N_112AutoRefCountINS0_10RefCountedEEESaIS3_EED2Ev.exit

_ZNSt12_Vector_baseIN12_GLOBAL__N_112AutoRefCountINS0_10RefCountedEEESaIS3_EED2Ev.exit: ; preds = %invoke.cont, %if.then.i.i
  ret void
}